target datalayout = "e-m:e-p270:32:32-p271:32:32-p272:64:64-i64:64-i128:128-f80:128-n8:16:32:64-S128"
target triple = "x86_64-pc-linux-gnu"

%struct.headers_t = type { ptr, ptr, i8, i64, ptr, i8, i32, ptr }

@.str.401 = private unnamed_addr constant [9 x i8] c"identity\00", align 1
@.str.402 = private unnamed_addr constant [5 x i8] c"gzip\00", align 1
@.str.403 = private unnamed_addr constant [8 x i8] c"deflate\00", align 1
@.str.404 = private unnamed_addr constant [7 x i8] c"x-gzip\00", align 1
@.str.489 = private unnamed_addr constant [8 x i8] c"chunked\00", align 1
@.str.490 = private unnamed_addr constant [9 x i8] c"compress\00", align 1
@.str.491 = private unnamed_addr constant [11 x i8] c"x-compress\00", align 1

; Function Attrs: null_pointer_is_valid sspstrong uwtable
define internal zeroext i1 @http_parse_transfer_coding(ptr noundef %0, ptr noundef %1) #0 {
  %3 = alloca ptr, align 8
  %4 = alloca ptr, align 8
  %5 = alloca i8, align 1
  store ptr %0, ptr %3, align 8
  store ptr %1, ptr %4, align 8
  call void @llvm.lifetime.start.p0(i64 1, ptr %5) #19
  store i8 1, ptr %5, align 1
  %6 = load ptr, ptr %4, align 8
  %7 = getelementptr inbounds nuw %struct.headers_t, ptr %6, i32 0, i32 6
  store i32 5, ptr %7, align 4
  br label %8

8:                                                ; preds = %119, %42, %2
  %9 = load ptr, ptr %3, align 8
  %10 = load i8, ptr %9, align 1
  %11 = icmp ne i8 %10, 0
  br i1 %11, label %12, label %120

12:                                               ; preds = %8
  br label %13

13:                                               ; preds = %30, %12
  %14 = load ptr, ptr %3, align 8
  %15 = load i8, ptr %14, align 1
  %16 = sext i8 %15 to i32
  %17 = icmp eq i32 %16, 32
  br i1 %17, label %28, label %18

18:                                               ; preds = %13
  %19 = load ptr, ptr %3, align 8
  %20 = load i8, ptr %19, align 1
  %21 = sext i8 %20 to i32
  %22 = icmp eq i32 %21, 9
  br i1 %22, label %28, label %23

23:                                               ; preds = %18
  %24 = load ptr, ptr %3, align 8
  %25 = load i8, ptr %24, align 1
  %26 = sext i8 %25 to i32
  %27 = icmp eq i32 %26, 44
  br label %28

28:                                               ; preds = %23, %18, %13
  %29 = phi i1 [ true, %18 ], [ true, %13 ], [ %27, %23 ]
  br i1 %29, label %30, label %33

30:                                               ; preds = %28
  %31 = load ptr, ptr %3, align 8
  %32 = getelementptr i8, ptr %31, i32 1
  store ptr %32, ptr %3, align 8
  br label %13, !llvm.loop !35

33:                                               ; preds = %28
  %34 = load ptr, ptr %3, align 8
  %35 = load i8, ptr %34, align 1
  %36 = icmp ne i8 %35, 0
  br i1 %36, label %38, label %37

37:                                               ; preds = %33
  br label %120

38:                                               ; preds = %33
  %39 = load ptr, ptr %3, align 8
  %40 = call i32 @g_str_has_prefix(ptr noundef %39, ptr noundef @.str.489)
  %41 = icmp ne i32 %40, 0
  br i1 %41, label %42, label %47

42:                                               ; preds = %38
  %43 = load ptr, ptr %4, align 8
  %44 = getelementptr inbounds nuw %struct.headers_t, ptr %43, i32 0, i32 5
  store i8 1, ptr %44, align 8
  %45 = load ptr, ptr %3, align 8
  %46 = getelementptr i8, ptr %45, i64 7
  store ptr %46, ptr %3, align 8
  br label %8, !llvm.loop !36

47:                                               ; preds = %38
  %48 = load ptr, ptr %4, align 8
  %49 = getelementptr inbounds nuw %struct.headers_t, ptr %48, i32 0, i32 6
  %50 = load i32, ptr %49, align 4
  %51 = icmp ne i32 %50, 5
  br i1 %51, label %52, label %53

52:                                               ; preds = %47
  store i8 0, ptr %5, align 1
  br label %120

53:                                               ; preds = %47
  %54 = load ptr, ptr %3, align 8
  %55 = call i32 @g_str_has_prefix(ptr noundef %54, ptr noundef @.str.490)
  %56 = icmp ne i32 %55, 0
  br i1 %56, label %57, label %62

57:                                               ; preds = %53
  %58 = load ptr, ptr %4, align 8
  %59 = getelementptr inbounds nuw %struct.headers_t, ptr %58, i32 0, i32 6
  store i32 1, ptr %59, align 4
  %60 = load ptr, ptr %3, align 8
  %61 = getelementptr i8, ptr %60, i64 8
  store ptr %61, ptr %3, align 8
  br label %119

62:                                               ; preds = %53
  %63 = load ptr, ptr %3, align 8
  %64 = call i32 @g_str_has_prefix(ptr noundef %63, ptr noundef @.str.403)
  %65 = icmp ne i32 %64, 0
  br i1 %65, label %66, label %71

66:                                               ; preds = %62
  %67 = load ptr, ptr %4, align 8
  %68 = getelementptr inbounds nuw %struct.headers_t, ptr %67, i32 0, i32 6
  store i32 2, ptr %68, align 4
  %69 = load ptr, ptr %3, align 8
  %70 = getelementptr i8, ptr %69, i64 7
  store ptr %70, ptr %3, align 8
  br label %118

71:                                               ; preds = %62
  %72 = load ptr, ptr %3, align 8
  %73 = call i32 @g_str_has_prefix(ptr noundef %72, ptr noundef @.str.402)
  %74 = icmp ne i32 %73, 0
  br i1 %74, label %75, label %80

75:                                               ; preds = %71
  %76 = load ptr, ptr %4, align 8
  %77 = getelementptr inbounds nuw %struct.headers_t, ptr %76, i32 0, i32 6
  store i32 3, ptr %77, align 4
  %78 = load ptr, ptr %3, align 8
  %79 = getelementptr i8, ptr %78, i64 4
  store ptr %79, ptr %3, align 8
  br label %117

80:                                               ; preds = %71
  %81 = load ptr, ptr %3, align 8
  %82 = call i32 @g_str_has_prefix(ptr noundef %81, ptr noundef @.str.401)
  %83 = icmp ne i32 %82, 0
  br i1 %83, label %84, label %89

84:                                               ; preds = %80
  %85 = load ptr, ptr %4, align 8
  %86 = getelementptr inbounds nuw %struct.headers_t, ptr %85, i32 0, i32 6
  store i32 4, ptr %86, align 4
  %87 = load ptr, ptr %3, align 8
  %88 = getelementptr i8, ptr %87, i64 8
  store ptr %88, ptr %3, align 8
  br label %116

89:                                               ; preds = %80
  %90 = load ptr, ptr %3, align 8
  %91 = call i32 @g_str_has_prefix(ptr noundef %90, ptr noundef @.str.491)
  %92 = icmp ne i32 %91, 0
  br i1 %92, label %93, label %98

93:                                               ; preds = %89
  %94 = load ptr, ptr %4, align 8
  %95 = getelementptr inbounds nuw %struct.headers_t, ptr %94, i32 0, i32 6
  store i32 1, ptr %95, align 4
  %96 = load ptr, ptr %3, align 8
  %97 = getelementptr i8, ptr %96, i64 10
  store ptr %97, ptr %3, align 8
  br label %115

98:                                               ; preds = %89
  %99 = load ptr, ptr %3, align 8
  %100 = call i32 @g_str_has_prefix(ptr noundef %99, ptr noundef @.str.404)
  %101 = icmp ne i32 %100, 0
  br i1 %101, label %102, label %107

102:                                              ; preds = %98
  %103 = load ptr, ptr %4, align 8
  %104 = getelementptr inbounds nuw %struct.headers_t, ptr %103, i32 0, i32 6
  store i32 3, ptr %104, align 4
  %105 = load ptr, ptr %3, align 8
  %106 = getelementptr i8, ptr %105, i64 6
  store ptr %106, ptr %3, align 8
  br label %114

107:                                              ; preds = %98
  store i8 0, ptr %5, align 1
  %108 = load ptr, ptr %3, align 8
  %109 = call ptr @strchr(ptr noundef %108, i32 noundef 44) #20
  store ptr %109, ptr %3, align 8
  %110 = load ptr, ptr %3, align 8
  %111 = icmp ne ptr %110, null
  br i1 %111, label %113, label %112

112:                                              ; preds = %107
  br label %120

113:                                              ; preds = %107
  br label %114

114:                                              ; preds = %113, %102
  br label %115

115:                                              ; preds = %114, %93
  br label %116

116:                                              ; preds = %115, %84
  br label %117

117:                                              ; preds = %116, %75
  br label %118

118:                                              ; preds = %117, %66
  br label %119

119:                                              ; preds = %118, %57
  br label %8, !llvm.loop !36

120:                                              ; preds = %112, %52, %37, %8
  %121 = load i8, ptr %5, align 1, !range !9, !noundef !10
  %122 = trunc i8 %121 to i1
  call void @llvm.lifetime.end.p0(i64 1, ptr %5) #19
  ret i1 %122
}