; Function Attrs: null_pointer_is_valid sspstrong uwtable
define internal fastcc zeroext i1 @http_parse_transfer_coding(ptr noundef %0, ptr noundef captures(none) initializes((44, 48)) %1) unnamed_addr #0 {
  %3 = getelementptr inbounds nuw i8, ptr %1, i64 44
  store i32 5, ptr %3, align 4
  %4 = load i8, ptr %0, align 1
  %.not5154 = icmp eq i8 %4, 0
  br i1 %.not5154, label %.loopexit, label %.preheader.lr.ph.lr.ph

.preheader.lr.ph.lr.ph:                           ; preds = %2
  %5 = getelementptr inbounds nuw i8, ptr %1, i64 40
  br label %.preheader.lr.ph

.preheader.lr.ph:                                 ; preds = %.preheader.lr.ph.lr.ph, %.outer
  %6 = phi i8 [ %4, %.preheader.lr.ph.lr.ph ], [ %31, %.outer ]
  %.0.ph56 = phi i1 [ true, %.preheader.lr.ph.lr.ph ], [ %.2, %.outer ]
  %.031.ph55 = phi ptr [ %0, %.preheader.lr.ph.lr.ph ], [ %.233, %.outer ]
  br label %.preheader

.preheader:                                       ; preds = %.preheader.backedge, %.preheader.lr.ph
  %7 = phi i8 [ %6, %.preheader.lr.ph ], [ %.be, %.preheader.backedge ]
  %.132 = phi ptr [ %.031.ph55, %.preheader.lr.ph ], [ %.132.be, %.preheader.backedge ]
  switch i8 %7, label %9 [
    i8 32, label %.critedge
    i8 9, label %.critedge
    i8 44, label %.critedge
    i8 0, label %.loopexit
  ]

.critedge:                                        ; preds = %.preheader, %.preheader, %.preheader
  %8 = getelementptr i8, ptr %.132, i64 1
  %.pr = load i8, ptr %8, align 1
  br label %.preheader.backedge

.preheader.backedge:                              ; preds = %.critedge, %11
  %.be = phi i8 [ %.pr, %.critedge ], [ %13, %11 ]
  %.132.be = phi ptr [ %8, %.critedge ], [ %12, %11 ]
  br label %.preheader, !llvm.loop !36

9:                                                ; preds = %.preheader
  %10 = tail call i32 @g_str_has_prefix(ptr noundef %.132, ptr noundef nonnull @.str.489)
  %.not37 = icmp eq i32 %10, 0
  br i1 %.not37, label %14, label %11

11:                                               ; preds = %9
  store i8 1, ptr %5, align 8
  %12 = getelementptr i8, ptr %.132, i64 7
  %13 = load i8, ptr %12, align 1
  %.not = icmp eq i8 %13, 0
  br i1 %.not, label %.loopexit, label %.preheader.backedge

14:                                               ; preds = %9
  %15 = load i32, ptr %3, align 4
  %.not38 = icmp eq i32 %15, 5
  br i1 %.not38, label %16, label %.loopexit

16:                                               ; preds = %14
  %17 = tail call i32 @g_str_has_prefix(ptr noundef %.132, ptr noundef nonnull @.str.490)
  %.not39 = icmp eq i32 %17, 0
  br i1 %.not39, label %18, label %.outer.sink.split

18:                                               ; preds = %16
  %19 = tail call i32 @g_str_has_prefix(ptr noundef %.132, ptr noundef nonnull @.str.403)
  %.not40 = icmp eq i32 %19, 0
  br i1 %.not40, label %20, label %.outer.sink.split

20:                                               ; preds = %18
  %21 = tail call i32 @g_str_has_prefix(ptr noundef %.132, ptr noundef nonnull @.str.402)
  %.not41 = icmp eq i32 %21, 0
  br i1 %.not41, label %22, label %.outer.sink.split

22:                                               ; preds = %20
  %23 = tail call i32 @g_str_has_prefix(ptr noundef %.132, ptr noundef nonnull @.str.401)
  %.not42 = icmp eq i32 %23, 0
  br i1 %.not42, label %24, label %.outer.sink.split

24:                                               ; preds = %22
  %25 = tail call i32 @g_str_has_prefix(ptr noundef %.132, ptr noundef nonnull @.str.491)
  %.not43 = icmp eq i32 %25, 0
  br i1 %.not43, label %26, label %.outer.sink.split

26:                                               ; preds = %24
  %27 = tail call i32 @g_str_has_prefix(ptr noundef %.132, ptr noundef nonnull @.str.404)
  %.not44 = icmp eq i32 %27, 0
  br i1 %.not44, label %28, label %.outer.sink.split

28:                                               ; preds = %26
  %29 = tail call ptr @strchr(ptr noundef %.132, i32 noundef 44) #20
  %.not45 = icmp eq ptr %29, null
  br i1 %.not45, label %.loopexit, label %.outer

.outer.sink.split:                                ; preds = %26, %24, %22, %20, %18, %16
  %.sink70 = phi i32 [ 1, %16 ], [ 2, %18 ], [ 3, %20 ], [ 4, %22 ], [ 1, %24 ], [ 3, %26 ]
  %.sink = phi i64 [ 8, %16 ], [ 7, %18 ], [ 4, %20 ], [ 8, %22 ], [ 10, %24 ], [ 6, %26 ]
  store i32 %.sink70, ptr %3, align 4
  %30 = getelementptr i8, ptr %.132, i64 %.sink
  br label %.outer

.outer:                                           ; preds = %.outer.sink.split, %28
  %.233 = phi ptr [ %29, %28 ], [ %30, %.outer.sink.split ]
  %.2 = phi i1 [ false, %28 ], [ %.0.ph56, %.outer.sink.split ]
  %31 = load i8, ptr %.233, align 1
  %.not51 = icmp eq i8 %31, 0
  br i1 %.not51, label %.loopexit, label %.preheader.lr.ph, !llvm.loop !36

.loopexit:                                        ; preds = %.outer, %14, %28, %11, %.preheader, %2
  %.1 = phi i1 [ true, %2 ], [ %.0.ph56, %.preheader ], [ %.0.ph56, %11 ], [ %.2, %.outer ], [ false, %14 ], [ false, %28 ]
  ret i1 %.1
}